target datalayout = "e-m:e-p270:32:32-p271:32:32-p272:64:64-i64:64-i128:128-f80:128-n8:16:32:64-S128"
target triple = "x86_64-pc-linux-gnu"

; Function Attrs: mustprogress nounwind uwtable
define noundef ptr @_Z8RemoveLFPw(ptr noundef %0) #0 {
  %2 = alloca ptr, align 8
  %3 = alloca i32, align 4
  store ptr %0, ptr %2, align 8
  %4 = load ptr, ptr %2, align 8
  %5 = call i64 @wcslen(ptr noundef %4) #5
  %6 = trunc i64 %5 to i32
  %7 = sub nsw i32 %6, 1
  store i32 %7, ptr %3, align 4
  br label %8

8:                                                ; preds = %34, %1
  %9 = load i32, ptr %3, align 4
  %10 = icmp sge i32 %9, 0
  br i1 %10, label %11, label %27

11:                                               ; preds = %8
  %12 = load ptr, ptr %2, align 8
  %13 = load i32, ptr %3, align 4
  %14 = sext i32 %13 to i64
  %15 = getelementptr inbounds i32, ptr %12, i64 %14
  %16 = load i32, ptr %15, align 4
  %17 = icmp eq i32 %16, 13
  br i1 %17, label %25, label %18

18:                                               ; preds = %11
  %19 = load ptr, ptr %2, align 8
  %20 = load i32, ptr %3, align 4
  %21 = sext i32 %20 to i64
  %22 = getelementptr inbounds i32, ptr %19, i64 %21
  %23 = load i32, ptr %22, align 4
  %24 = icmp eq i32 %23, 10
  br label %25

25:                                               ; preds = %18, %11
  %26 = phi i1 [ true, %11 ], [ %24, %18 ]
  br label %27

27:                                               ; preds = %25, %8
  %28 = phi i1 [ false, %8 ], [ %26, %25 ]
  br i1 %28, label %29, label %37

29:                                               ; preds = %27
  %30 = load ptr, ptr %2, align 8
  %31 = load i32, ptr %3, align 4
  %32 = sext i32 %31 to i64
  %33 = getelementptr inbounds i32, ptr %30, i64 %32
  store i32 0, ptr %33, align 4
  br label %34

34:                                               ; preds = %29
  %35 = load i32, ptr %3, align 4
  %36 = add nsw i32 %35, -1
  store i32 %36, ptr %3, align 4
  br label %8, !llvm.loop !9

37:                                               ; preds = %27
  %38 = load ptr, ptr %2, align 8
  ret ptr %38
}